target datalayout = "e-m:e-p270:32:32-p271:32:32-p272:64:64-i64:64-i128:128-f80:128-n8:16:32:64-S128"
target triple = "x86_64-pc-linux-gnu"

%struct.Exinput_s = type { ptr, i32, ptr, ptr, i32, i32, i32, i32, ptr, ptr }
%union.EX_STYPE = type { ptr }
%struct.Expr_s = type { ptr, ptr, [10 x ptr], ptr, ptr, ptr, %struct._dtdisc_s, ptr, ptr, ptr, %struct.agxbuf, %union.EX_STYPE, %struct.Exid_s, [512 x i8], ptr, i32, i32, i32, i32, i64, i32, i32 }
%struct._dtdisc_s = type { i32, i32, i32, ptr, ptr, ptr }
%struct.agxbuf = type { %union.anon }
%union.anon = type { %struct.anon }
%struct.anon = type { ptr, i64, i64, [7 x i8], i8 }
%struct.Exid_s = type { %struct._dtlink_s, i64, i64, i64, i64, i64, ptr, ptr, i64, [32 x i8] }
%struct._dtlink_s = type { ptr, %union.anon.0 }
%union.anon.0 = type { ptr }

; Function Attrs: nounwind uwtable
define internal void @agxbfree(ptr noundef %0) #0 {
  %2 = alloca ptr, align 8
  store ptr %0, ptr %2, align 8
  %3 = load ptr, ptr %2, align 8
  %4 = getelementptr inbounds %struct.agxbuf, ptr %3, i32 0, i32 0
  %5 = getelementptr inbounds %struct.anon, ptr %4, i32 0, i32 4
  %6 = load i8, ptr %5, align 1
  %7 = zext i8 %6 to i32
  %8 = icmp eq i32 %7, 255
  br i1 %8, label %9, label %14

9:                                                ; preds = %1
  %10 = load ptr, ptr %2, align 8
  %11 = getelementptr inbounds %struct.agxbuf, ptr %10, i32 0, i32 0
  %12 = getelementptr inbounds %struct.anon, ptr %11, i32 0, i32 0
  %13 = load ptr, ptr %12, align 8
  call void @free(ptr noundef %13) #12
  br label %14

14:                                               ; preds = %9, %1
  ret void
}

; Function Attrs: nounwind uwtable
define void @exclose(ptr noundef %0, i32 noundef %1) #0 {
  %3 = alloca ptr, align 8
  %4 = alloca i32, align 4
  %5 = alloca ptr, align 8
  %6 = alloca i64, align 8
  store ptr %0, ptr %3, align 8
  store i32 %1, ptr %4, align 4
  %7 = load ptr, ptr %3, align 8
  %8 = icmp ne ptr %7, null
  br i1 %8, label %9, label %108

9:                                                ; preds = %2
  %10 = load i32, ptr %4, align 4
  %11 = icmp ne i32 %10, 0
  br i1 %11, label %12, label %100

12:                                               ; preds = %9
  store i64 3, ptr %6, align 8
  br label %13

13:                                               ; preds = %31, %12
  %14 = load i64, ptr %6, align 8
  %15 = icmp ult i64 %14, 10
  br i1 %15, label %16, label %34

16:                                               ; preds = %13
  %17 = load ptr, ptr %3, align 8
  %18 = getelementptr inbounds %struct.Expr_s, ptr %17, i32 0, i32 2
  %19 = load i64, ptr %6, align 8
  %20 = getelementptr inbounds [10 x ptr], ptr %18, i64 0, i64 %19
  %21 = load ptr, ptr %20, align 8
  %22 = icmp ne ptr %21, null
  br i1 %22, label %23, label %30

23:                                               ; preds = %16
  %24 = load ptr, ptr %3, align 8
  %25 = getelementptr inbounds %struct.Expr_s, ptr %24, i32 0, i32 2
  %26 = load i64, ptr %6, align 8
  %27 = getelementptr inbounds [10 x ptr], ptr %25, i64 0, i64 %26
  %28 = load ptr, ptr %27, align 8
  %29 = call i32 @fclose(ptr noundef %28)
  br label %30

30:                                               ; preds = %23, %16
  br label %31

31:                                               ; preds = %30
  %32 = load i64, ptr %6, align 8
  %33 = add i64 %32, 1
  store i64 %33, ptr %6, align 8
  br label %13

34:                                               ; preds = %13
  %35 = load ptr, ptr %3, align 8
  %36 = getelementptr inbounds %struct.Expr_s, ptr %35, i32 0, i32 3
  %37 = load ptr, ptr %36, align 8
  %38 = icmp ne ptr %37, null
  br i1 %38, label %39, label %43

39:                                               ; preds = %34
  %40 = load ptr, ptr %3, align 8
  %41 = getelementptr inbounds %struct.Expr_s, ptr %40, i32 0, i32 3
  %42 = load ptr, ptr %41, align 8
  call void @vmclose(ptr noundef %42)
  br label %43

43:                                               ; preds = %39, %34
  %44 = load ptr, ptr %3, align 8
  %45 = getelementptr inbounds %struct.Expr_s, ptr %44, i32 0, i32 4
  %46 = load ptr, ptr %45, align 8
  %47 = icmp ne ptr %46, null
  br i1 %47, label %48, label %52

48:                                               ; preds = %43
  %49 = load ptr, ptr %3, align 8
  %50 = getelementptr inbounds %struct.Expr_s, ptr %49, i32 0, i32 4
  %51 = load ptr, ptr %50, align 8
  call void @vmclose(ptr noundef %51)
  br label %52

52:                                               ; preds = %48, %43
  %53 = load ptr, ptr %3, align 8
  %54 = getelementptr inbounds %struct.Expr_s, ptr %53, i32 0, i32 1
  %55 = load ptr, ptr %54, align 8
  %56 = icmp ne ptr %55, null
  br i1 %56, label %57, label %62

57:                                               ; preds = %52
  %58 = load ptr, ptr %3, align 8
  %59 = getelementptr inbounds %struct.Expr_s, ptr %58, i32 0, i32 1
  %60 = load ptr, ptr %59, align 8
  %61 = call i32 @dtclose(ptr noundef %60)
  br label %62

62:                                               ; preds = %57, %52
  %63 = load ptr, ptr %3, align 8
  %64 = getelementptr inbounds %struct.Expr_s, ptr %63, i32 0, i32 10
  call void @agxbfree(ptr noundef %64)
  br label %65

65:                                               ; preds = %97, %62
  %66 = load ptr, ptr %3, align 8
  %67 = getelementptr inbounds %struct.Expr_s, ptr %66, i32 0, i32 8
  %68 = load ptr, ptr %67, align 8
  store ptr %68, ptr %5, align 8
  %69 = icmp ne ptr %68, null
  br i1 %69, label %70, label %98

70:                                               ; preds = %65
  %71 = load ptr, ptr %5, align 8
  %72 = getelementptr inbounds %struct.Exinput_s, ptr %71, i32 0, i32 8
  %73 = load ptr, ptr %72, align 8
  call void @free(ptr noundef %73) #12
  %74 = load ptr, ptr %5, align 8
  %75 = getelementptr inbounds %struct.Exinput_s, ptr %74, i32 0, i32 3
  %76 = load ptr, ptr %75, align 8
  %77 = icmp ne ptr %76, null
  br i1 %77, label %78, label %88

78:                                               ; preds = %70
  %79 = load ptr, ptr %5, align 8
  %80 = getelementptr inbounds %struct.Exinput_s, ptr %79, i32 0, i32 1
  %81 = load i32, ptr %80, align 8
  %82 = icmp ne i32 %81, 0
  br i1 %82, label %83, label %88

83:                                               ; preds = %78
  %84 = load ptr, ptr %5, align 8
  %85 = getelementptr inbounds %struct.Exinput_s, ptr %84, i32 0, i32 3
  %86 = load ptr, ptr %85, align 8
  %87 = call i32 @fclose(ptr noundef %86)
  br label %88

88:                                               ; preds = %83, %78, %70
  %89 = load ptr, ptr %5, align 8
  %90 = getelementptr inbounds %struct.Exinput_s, ptr %89, i32 0, i32 0
  %91 = load ptr, ptr %90, align 8
  %92 = load ptr, ptr %3, align 8
  %93 = getelementptr inbounds %struct.Expr_s, ptr %92, i32 0, i32 8
  store ptr %91, ptr %93, align 8
  %94 = icmp ne ptr %91, null
  br i1 %94, label %95, label %97

95:                                               ; preds = %88
  %96 = load ptr, ptr %5, align 8
  call void @free(ptr noundef %96) #12
  br label %97

97:                                               ; preds = %95, %88
  br label %65

98:                                               ; preds = %65
  %99 = load ptr, ptr %3, align 8
  call void @free(ptr noundef %99) #12
  br label %107

100:                                              ; preds = %9
  %101 = load ptr, ptr %3, align 8
  %102 = getelementptr inbounds %struct.Expr_s, ptr %101, i32 0, i32 4
  %103 = load ptr, ptr %102, align 8
  call void @vmclear(ptr noundef %103)
  %104 = load ptr, ptr %3, align 8
  %105 = getelementptr inbounds %struct.Expr_s, ptr %104, i32 0, i32 12
  %106 = getelementptr inbounds %struct.Exid_s, ptr %105, i32 0, i32 6
  store ptr null, ptr %106, align 8
  br label %107

107:                                              ; preds = %100, %98
  br label %108

108:                                              ; preds = %107, %2
  ret void
}