; Function Attrs: nounwind uwtable
define void @exclose(ptr noundef %0, i32 noundef %1) local_unnamed_addr #0 {
  %.not = icmp eq ptr %0, null
  br i1 %.not, label %51, label %3

3:                                                ; preds = %2
  %.not32 = icmp eq i32 %1, 0
  br i1 %.not32, label %47, label %.preheader

.preheader:                                       ; preds = %3
  %4 = getelementptr inbounds nuw i8, ptr %0, i64 16
  br label %5

5:                                                ; preds = %.preheader, %10
  %.041 = phi i64 [ 3, %.preheader ], [ %11, %10 ]
  %6 = getelementptr inbounds nuw [10 x ptr], ptr %4, i64 0, i64 %.041
  %7 = load ptr, ptr %6, align 8
  %.not40 = icmp eq ptr %7, null
  br i1 %.not40, label %10, label %8

8:                                                ; preds = %5
  %9 = tail call i32 @fclose(ptr noundef nonnull %7)
  br label %10

10:                                               ; preds = %5, %8
  %11 = add nuw nsw i64 %.041, 1
  %exitcond.not = icmp eq i64 %11, 10
  br i1 %exitcond.not, label %12, label %5

12:                                               ; preds = %10
  %13 = getelementptr inbounds nuw i8, ptr %0, i64 96
  %14 = load ptr, ptr %13, align 8
  %.not33 = icmp eq ptr %14, null
  br i1 %.not33, label %16, label %15

15:                                               ; preds = %12
  tail call void @vmclose(ptr noundef nonnull %14) #22
  br label %16

16:                                               ; preds = %15, %12
  %17 = getelementptr inbounds nuw i8, ptr %0, i64 104
  %18 = load ptr, ptr %17, align 8
  %.not34 = icmp eq ptr %18, null
  br i1 %.not34, label %20, label %19

19:                                               ; preds = %16
  tail call void @vmclose(ptr noundef nonnull %18) #22
  br label %20

20:                                               ; preds = %19, %16
  %21 = getelementptr inbounds nuw i8, ptr %0, i64 8
  %22 = load ptr, ptr %21, align 8
  %.not35 = icmp eq ptr %22, null
  br i1 %.not35, label %25, label %23

23:                                               ; preds = %20
  %24 = tail call i32 @dtclose(ptr noundef nonnull %22) #22
  br label %25

25:                                               ; preds = %23, %20
  %26 = getelementptr inbounds nuw i8, ptr %0, i64 215
  %27 = load i8, ptr %26, align 1
  %28 = icmp eq i8 %27, -1
  br i1 %28, label %29, label %agxbfree.exit

29:                                               ; preds = %25
  %30 = getelementptr inbounds nuw i8, ptr %0, i64 184
  %31 = load ptr, ptr %30, align 8
  tail call void @free(ptr noundef %31) #22
  br label %agxbfree.exit

agxbfree.exit:                                    ; preds = %25, %29
  %32 = getelementptr inbounds nuw i8, ptr %0, i64 168
  %33 = load ptr, ptr %32, align 8
  %.not3642 = icmp eq ptr %33, null
  br i1 %.not3642, label %._crit_edge, label %.lr.ph

.lr.ph:                                           ; preds = %agxbfree.exit, %46
  %34 = phi ptr [ %.pre, %46 ], [ %33, %agxbfree.exit ]
  %35 = getelementptr inbounds nuw i8, ptr %34, i64 48
  %36 = load ptr, ptr %35, align 8
  tail call void @free(ptr noundef %36) #22
  %37 = getelementptr inbounds nuw i8, ptr %34, i64 24
  %38 = load ptr, ptr %37, align 8
  %.not37 = icmp eq ptr %38, null
  br i1 %.not37, label %44, label %39

39:                                               ; preds = %.lr.ph
  %40 = getelementptr inbounds nuw i8, ptr %34, i64 8
  %41 = load i32, ptr %40, align 8
  %.not38 = icmp eq i32 %41, 0
  br i1 %.not38, label %44, label %42

42:                                               ; preds = %39
  %43 = tail call i32 @fclose(ptr noundef nonnull %38)
  br label %44

44:                                               ; preds = %42, %39, %.lr.ph
  %45 = load ptr, ptr %34, align 8
  store ptr %45, ptr %32, align 8
  %.not39 = icmp eq ptr %45, null
  br i1 %.not39, label %._crit_edge, label %46

46:                                               ; preds = %44
  tail call void @free(ptr noundef nonnull %34) #22
  %.pre = load ptr, ptr %32, align 8
  %.not36 = icmp eq ptr %.pre, null
  br i1 %.not36, label %._crit_edge, label %.lr.ph

._crit_edge:                                      ; preds = %44, %46, %agxbfree.exit
  tail call void @free(ptr noundef nonnull %0) #22
  br label %51

47:                                               ; preds = %3
  %48 = getelementptr inbounds nuw i8, ptr %0, i64 104
  %49 = load ptr, ptr %48, align 8
  tail call void @vmclear(ptr noundef %49) #22
  %50 = getelementptr inbounds nuw i8, ptr %0, i64 280
  store ptr null, ptr %50, align 8
  br label %51

51:                                               ; preds = %._crit_edge, %47, %2
  ret void
}